target datalayout = "e-m:e-p270:32:32-p271:32:32-p272:64:64-i64:64-i128:128-f80:128-n8:16:32:64-S128"
target triple = "x86_64-pc-linux-gnu"

%struct.dlist_head = type { %struct.dlist_node }
%struct.dlist_node = type { ptr, ptr }
%struct.dlist_iter = type { ptr, ptr }
%struct.CachedPlanSource = type { i32, ptr, ptr, i32, ptr, i32, ptr, ptr, i32, i8, ptr, ptr, ptr, ptr, ptr, ptr, ptr, i32, i8, i8, ptr, i8, i8, i8, i8, i32, %struct.dlist_node, double, double, i64, i64 }
%struct.CachedPlan = type { i32, ptr, i8, i8, i8, i32, i8, i32, i32, i32, ptr }
%struct.CachedExpression = type { i32, ptr, i8, ptr, ptr, ptr, %struct.dlist_node }

@saved_plan_list = internal global %struct.dlist_head { %struct.dlist_node { ptr @saved_plan_list, ptr @saved_plan_list } }, align 8
@cached_expression_list = internal global %struct.dlist_head { %struct.dlist_node { ptr @cached_expression_list, ptr @cached_expression_list } }, align 8

; Function Attrs: nounwind uwtable
define dso_local void @ResetPlanCache() #0 {
  %1 = alloca %struct.dlist_iter, align 8
  %2 = alloca i32, align 4
  %3 = alloca i32, align 4
  %4 = alloca ptr, align 8
  %5 = alloca i32, align 4
  %6 = alloca i32, align 4
  %7 = alloca i32, align 4
  %8 = alloca i32, align 4
  %9 = alloca i32, align 4
  %10 = alloca ptr, align 8
  %11 = alloca i32, align 4
  %12 = alloca i32, align 4
  call void @llvm.lifetime.start.p0(i64 16, ptr %1) #8
  br label %13

13:                                               ; preds = %0
  br label %14

14:                                               ; preds = %13
  br label %15

15:                                               ; preds = %14
  store i32 1, ptr %2, align 4
  br label %16

16:                                               ; preds = %15
  br label %17

17:                                               ; preds = %16
  br label %18

18:                                               ; preds = %17
  store i32 1, ptr %3, align 4
  %19 = getelementptr inbounds nuw %struct.dlist_iter, ptr %1, i32 0, i32 1
  store ptr @saved_plan_list, ptr %19, align 8
  %20 = getelementptr inbounds nuw %struct.dlist_iter, ptr %1, i32 0, i32 1
  %21 = load ptr, ptr %20, align 8
  %22 = getelementptr inbounds nuw %struct.dlist_node, ptr %21, i32 0, i32 1
  %23 = load ptr, ptr %22, align 8
  %24 = icmp ne ptr %23, null
  br i1 %24, label %25, label %30

25:                                               ; preds = %18
  %26 = getelementptr inbounds nuw %struct.dlist_iter, ptr %1, i32 0, i32 1
  %27 = load ptr, ptr %26, align 8
  %28 = getelementptr inbounds nuw %struct.dlist_node, ptr %27, i32 0, i32 1
  %29 = load ptr, ptr %28, align 8
  br label %33

30:                                               ; preds = %18
  %31 = getelementptr inbounds nuw %struct.dlist_iter, ptr %1, i32 0, i32 1
  %32 = load ptr, ptr %31, align 8
  br label %33

33:                                               ; preds = %30, %25
  %34 = phi ptr [ %29, %25 ], [ %32, %30 ]
  %35 = getelementptr inbounds nuw %struct.dlist_iter, ptr %1, i32 0, i32 0
  store ptr %34, ptr %35, align 8
  br label %36

36:                                               ; preds = %84, %33
  %37 = getelementptr inbounds nuw %struct.dlist_iter, ptr %1, i32 0, i32 0
  %38 = load ptr, ptr %37, align 8
  %39 = getelementptr inbounds nuw %struct.dlist_iter, ptr %1, i32 0, i32 1
  %40 = load ptr, ptr %39, align 8
  %41 = icmp ne ptr %38, %40
  br i1 %41, label %42, label %90

42:                                               ; preds = %36
  call void @llvm.lifetime.start.p0(i64 8, ptr %4) #8
  br label %43

43:                                               ; preds = %42
  br label %44

44:                                               ; preds = %43
  br label %45

45:                                               ; preds = %44
  store i32 1, ptr %5, align 4
  br label %46

46:                                               ; preds = %45
  br label %47

47:                                               ; preds = %46
  br label %48

48:                                               ; preds = %47
  store i32 1, ptr %6, align 4
  %49 = getelementptr inbounds nuw %struct.dlist_iter, ptr %1, i32 0, i32 0
  %50 = load ptr, ptr %49, align 8
  %51 = getelementptr inbounds i8, ptr %50, i64 -152
  store ptr %51, ptr %4, align 8
  %52 = load ptr, ptr %4, align 8
  %53 = getelementptr inbounds nuw %struct.CachedPlanSource, ptr %52, i32 0, i32 24
  %54 = load i8, ptr %53, align 1, !range !4, !noundef !5
  %55 = trunc i8 %54 to i1
  br i1 %55, label %57, label %56

56:                                               ; preds = %48
  store i32 8, ptr %7, align 4
  br label %81

57:                                               ; preds = %48
  %58 = load ptr, ptr %4, align 8
  %59 = getelementptr inbounds nuw %struct.CachedPlanSource, ptr %58, i32 0, i32 1
  %60 = load ptr, ptr %59, align 8
  %61 = icmp ne ptr %60, null
  br i1 %61, label %62, label %67

62:                                               ; preds = %57
  %63 = load ptr, ptr %4, align 8
  %64 = getelementptr inbounds nuw %struct.CachedPlanSource, ptr %63, i32 0, i32 1
  %65 = load ptr, ptr %64, align 8
  %66 = call zeroext i1 @stmt_requires_parse_analysis(ptr noundef %65)
  br i1 %66, label %68, label %67

67:                                               ; preds = %62, %57
  store i32 8, ptr %7, align 4
  br label %81

68:                                               ; preds = %62
  %69 = load ptr, ptr %4, align 8
  %70 = getelementptr inbounds nuw %struct.CachedPlanSource, ptr %69, i32 0, i32 24
  store i8 0, ptr %70, align 1
  %71 = load ptr, ptr %4, align 8
  %72 = getelementptr inbounds nuw %struct.CachedPlanSource, ptr %71, i32 0, i32 20
  %73 = load ptr, ptr %72, align 8
  %74 = icmp ne ptr %73, null
  br i1 %74, label %75, label %80

75:                                               ; preds = %68
  %76 = load ptr, ptr %4, align 8
  %77 = getelementptr inbounds nuw %struct.CachedPlanSource, ptr %76, i32 0, i32 20
  %78 = load ptr, ptr %77, align 8
  %79 = getelementptr inbounds nuw %struct.CachedPlan, ptr %78, i32 0, i32 4
  store i8 0, ptr %79, align 2
  br label %80

80:                                               ; preds = %75, %68
  store i32 0, ptr %7, align 4
  br label %81

81:                                               ; preds = %80, %67, %56
  call void @llvm.lifetime.end.p0(i64 8, ptr %4) #8
  %82 = load i32, ptr %7, align 4
  switch i32 %82, label %139 [
    i32 0, label %83
    i32 8, label %84
  ]

83:                                               ; preds = %81
  br label %84

84:                                               ; preds = %83, %81
  %85 = getelementptr inbounds nuw %struct.dlist_iter, ptr %1, i32 0, i32 0
  %86 = load ptr, ptr %85, align 8
  %87 = getelementptr inbounds nuw %struct.dlist_node, ptr %86, i32 0, i32 1
  %88 = load ptr, ptr %87, align 8
  %89 = getelementptr inbounds nuw %struct.dlist_iter, ptr %1, i32 0, i32 0
  store ptr %88, ptr %89, align 8
  br label %36, !llvm.loop !22

90:                                               ; preds = %36
  br label %91

91:                                               ; preds = %90
  br label %92

92:                                               ; preds = %91
  br label %93

93:                                               ; preds = %92
  store i32 1, ptr %8, align 4
  br label %94

94:                                               ; preds = %93
  br label %95

95:                                               ; preds = %94
  br label %96

96:                                               ; preds = %95
  store i32 1, ptr %9, align 4
  %97 = getelementptr inbounds nuw %struct.dlist_iter, ptr %1, i32 0, i32 1
  store ptr @cached_expression_list, ptr %97, align 8
  %98 = getelementptr inbounds nuw %struct.dlist_iter, ptr %1, i32 0, i32 1
  %99 = load ptr, ptr %98, align 8
  %100 = getelementptr inbounds nuw %struct.dlist_node, ptr %99, i32 0, i32 1
  %101 = load ptr, ptr %100, align 8
  %102 = icmp ne ptr %101, null
  br i1 %102, label %103, label %108

103:                                              ; preds = %96
  %104 = getelementptr inbounds nuw %struct.dlist_iter, ptr %1, i32 0, i32 1
  %105 = load ptr, ptr %104, align 8
  %106 = getelementptr inbounds nuw %struct.dlist_node, ptr %105, i32 0, i32 1
  %107 = load ptr, ptr %106, align 8
  br label %111

108:                                              ; preds = %96
  %109 = getelementptr inbounds nuw %struct.dlist_iter, ptr %1, i32 0, i32 1
  %110 = load ptr, ptr %109, align 8
  br label %111

111:                                              ; preds = %108, %103
  %112 = phi ptr [ %107, %103 ], [ %110, %108 ]
  %113 = getelementptr inbounds nuw %struct.dlist_iter, ptr %1, i32 0, i32 0
  store ptr %112, ptr %113, align 8
  br label %114

114:                                              ; preds = %132, %111
  %115 = getelementptr inbounds nuw %struct.dlist_iter, ptr %1, i32 0, i32 0
  %116 = load ptr, ptr %115, align 8
  %117 = getelementptr inbounds nuw %struct.dlist_iter, ptr %1, i32 0, i32 1
  %118 = load ptr, ptr %117, align 8
  %119 = icmp ne ptr %116, %118
  br i1 %119, label %120, label %138

120:                                              ; preds = %114
  call void @llvm.lifetime.start.p0(i64 8, ptr %10) #8
  br label %121

121:                                              ; preds = %120
  br label %122

122:                                              ; preds = %121
  br label %123

123:                                              ; preds = %122
  store i32 1, ptr %11, align 4
  br label %124

124:                                              ; preds = %123
  br label %125

125:                                              ; preds = %124
  br label %126

126:                                              ; preds = %125
  store i32 1, ptr %12, align 4
  %127 = getelementptr inbounds nuw %struct.dlist_iter, ptr %1, i32 0, i32 0
  %128 = load ptr, ptr %127, align 8
  %129 = getelementptr inbounds i8, ptr %128, i64 -48
  store ptr %129, ptr %10, align 8
  %130 = load ptr, ptr %10, align 8
  %131 = getelementptr inbounds nuw %struct.CachedExpression, ptr %130, i32 0, i32 2
  store i8 0, ptr %131, align 8
  call void @llvm.lifetime.end.p0(i64 8, ptr %10) #8
  br label %132

132:                                              ; preds = %126
  %133 = getelementptr inbounds nuw %struct.dlist_iter, ptr %1, i32 0, i32 0
  %134 = load ptr, ptr %133, align 8
  %135 = getelementptr inbounds nuw %struct.dlist_node, ptr %134, i32 0, i32 1
  %136 = load ptr, ptr %135, align 8
  %137 = getelementptr inbounds nuw %struct.dlist_iter, ptr %1, i32 0, i32 0
  store ptr %136, ptr %137, align 8
  br label %114, !llvm.loop !23

138:                                              ; preds = %114
  call void @llvm.lifetime.end.p0(i64 16, ptr %1) #8
  ret void

139:                                              ; preds = %81
  unreachable
}