; Function Attrs: nounwind uwtable
define dso_local void @ResetPlanCache() local_unnamed_addr #0 {
  %1 = load ptr, ptr getelementptr inbounds nuw (i8, ptr @saved_plan_list, i64 8), align 8
  %.not = icmp eq ptr %1, null
  %.not222934 = icmp eq ptr %1, @saved_plan_list
  %.not2229 = or i1 %.not, %.not222934
  br i1 %.not2229, label %select.unfold._crit_edge, label %.lr.ph

.lr.ph:                                           ; preds = %0, %select.unfold
  %.sroa.0.030 = phi ptr [ %16, %select.unfold ], [ %1, %0 ]
  %2 = getelementptr inbounds i8, ptr %.sroa.0.030, i64 -5
  %3 = load i8, ptr %2, align 1, !range !4, !noundef !5
  %4 = trunc nuw i8 %3 to i1
  br i1 %4, label %5, label %select.unfold

5:                                                ; preds = %.lr.ph
  %6 = getelementptr inbounds i8, ptr %.sroa.0.030, i64 -144
  %7 = load ptr, ptr %6, align 8
  %.not25 = icmp eq ptr %7, null
  br i1 %.not25, label %select.unfold, label %8

8:                                                ; preds = %5
  %9 = tail call zeroext i1 @stmt_requires_parse_analysis(ptr noundef nonnull %7) #9
  br i1 %9, label %10, label %select.unfold

10:                                               ; preds = %8
  store i8 0, ptr %2, align 1
  %11 = getelementptr inbounds i8, ptr %.sroa.0.030, i64 -16
  %12 = load ptr, ptr %11, align 8
  %.not26 = icmp eq ptr %12, null
  br i1 %.not26, label %select.unfold, label %13

13:                                               ; preds = %10
  %14 = getelementptr inbounds nuw i8, ptr %12, i64 18
  store i8 0, ptr %14, align 2
  br label %select.unfold

select.unfold:                                    ; preds = %10, %13, %5, %8, %.lr.ph
  %15 = getelementptr inbounds nuw i8, ptr %.sroa.0.030, i64 8
  %16 = load ptr, ptr %15, align 8
  %.not22 = icmp eq ptr %16, @saved_plan_list
  br i1 %.not22, label %select.unfold._crit_edge, label %.lr.ph, !llvm.loop !11

select.unfold._crit_edge:                         ; preds = %select.unfold, %0
  %17 = load ptr, ptr getelementptr inbounds nuw (i8, ptr @cached_expression_list, i64 8), align 8
  %.not23 = icmp eq ptr %17, null
  %.not243135 = icmp eq ptr %17, @cached_expression_list
  %.not2431 = or i1 %.not23, %.not243135
  br i1 %.not2431, label %select.unfold27._crit_edge, label %select.unfold27

select.unfold27:                                  ; preds = %select.unfold._crit_edge, %select.unfold27
  %.sroa.0.132 = phi ptr [ %20, %select.unfold27 ], [ %17, %select.unfold._crit_edge ]
  %18 = getelementptr inbounds i8, ptr %.sroa.0.132, i64 -32
  store i8 0, ptr %18, align 8
  %19 = getelementptr inbounds nuw i8, ptr %.sroa.0.132, i64 8
  %20 = load ptr, ptr %19, align 8
  %.not24 = icmp eq ptr %20, @cached_expression_list
  br i1 %.not24, label %select.unfold27._crit_edge, label %select.unfold27, !llvm.loop !12

select.unfold27._crit_edge:                       ; preds = %select.unfold27, %select.unfold._crit_edge
  ret void
}